(dp0
S'user_type'
p1
S'admin'
p2
sVfirst_name
p3
VKirshan
p4
sVis_bot
p5
I00
sVid
p6
I556419073
sVlanguage_code
p7
Ven-US
p8
s.(dp0
S'user_type'
p1
S'admin'
p2
sVfirst_name
p3
VKirshan
p4
sVis_bot
p5
I00
sVid
p6
I556419073
sVlanguage_code
p7
Ven-US
p8
s.(dp0
S'user_type'
p1
S'admin'
p2
sVfirst_name
p3
VKirshan
p4
sVis_bot
p5
I00
sVid
p6
I556419073
sVlanguage_code
p7
Ven-US
p8
s.(dp0
S'user_type'
p1
S'admin'
p2
sVfirst_name
p3
VKirshan
p4
sVis_bot
p5
I00
sVid
p6
I556419073
sVlanguage_code
p7
Ven-US
p8
s.(dp0
S'user_type'
p1
S'admin'
p2
sVfirst_name
p3
VKirshan
p4
sVis_bot
p5
I00
sVid
p6
I556419073
sVlanguage_code
p7
Ven-US
p8
s.(dp0
S'user_type'
p1
S'admin'
p2
sVfirst_name
p3
VKirshan
p4
sVis_bot
p5
I00
sVid
p6
I556419073
sVlanguage_code
p7
Ven-US
p8
s.(dp0
S'user_type'
p1
S'admin'
p2
sVfirst_name
p3
VKirshan
p4
sVis_bot
p5
I00
sVid
p6
I556419073
sVlanguage_code
p7
Ven-US
p8
s.(dp0
S'user_type'
p1
S'admin'
p2
sVfirst_name
p3
VKirshan
p4
sVis_bot
p5
I00
sVid
p6
I556419073
sVlanguage_code
p7
Ven-US
p8
s.(dp0
S'user_type'
p1
S'admin'
p2
sVfirst_name
p3
VKirshan
p4
sVis_bot
p5
I00
sVid
p6
I556419073
sVlanguage_code
p7
Ven-US
p8
s.(dp0
S'user_type'
p1
S'admin'
p2
sVfirst_name
p3
VKirshan
p4
sVis_bot
p5
I00
sVid
p6
I556419073
sVlanguage_code
p7
Ven-US
p8
s.(dp0
S'user_type'
p1
S'admin'
p2
sVfirst_name
p3
VKirshan
p4
sVis_bot
p5
I00
sVid
p6
I556419073
sVlanguage_code
p7
Ven-US
p8
s.(dp0
S'user_type'
p1
S'admin'
p2
sVfirst_name
p3
VKirshan
p4
sVis_bot
p5
I00
sVid
p6
I556419073
sVlanguage_code
p7
Ven-US
p8
s.(dp0
S'user_type'
p1
S'admin'
p2
sVfirst_name
p3
VKirshan
p4
sVis_bot
p5
I00
sVid
p6
I556419073
sVlanguage_code
p7
Ven-US
p8
s.(dp0
S'user_type'
p1
S'admin'
p2
sVfirst_name
p3
VKirshan
p4
sVis_bot
p5
I00
sVid
p6
I556419073
sVlanguage_code
p7
Ven-US
p8
s.(dp0
S'user_type'
p1
S'admin'
p2
sVfirst_name
p3
VKirshan
p4
sVis_bot
p5
I00
sVid
p6
I556419073
sVlanguage_code
p7
Ven-US
p8
s.(dp0
S'user_type'
p1
S'admin'
p2
sVfirst_name
p3
VKirshan
p4
sVis_bot
p5
I00
sVid
p6
I556419073
sVlanguage_code
p7
Ven-US
p8
s.(dp0
S'user_type'
p1
S'admin'
p2
sVfirst_name
p3
VKirshan
p4
sVis_bot
p5
I00
sVid
p6
I556419073
sVlanguage_code
p7
Ven-US
p8
s.(dp0
S'user_type'
p1
S'admin'
p2
sVfirst_name
p3
VKirshan
p4
sVis_bot
p5
I00
sVid
p6
I556419073
sVlanguage_code
p7
Ven-US
p8
s.(dp0
S'user_type'
p1
S'admin'
p2
sVfirst_name
p3
VKirshan
p4
sVis_bot
p5
I00
sVid
p6
I556419073
sVlanguage_code
p7
Ven-US
p8
s.(dp0
S'user_type'
p1
S'admin'
p2
sVfirst_name
p3
VKirshan
p4
sVis_bot
p5
I00
sVid
p6
I556419073
sVlanguage_code
p7
Ven-US
p8
s.(dp0
S'user_type'
p1
S'admin'
p2
sVfirst_name
p3
VKirshan
p4
sVis_bot
p5
I00
sVid
p6
I556419073
sVlanguage_code
p7
Ven-US
p8
s.(dp0
S'user_type'
p1
S'admin'
p2
sVfirst_name
p3
VKirshan
p4
sVis_bot
p5
I00
sVid
p6
I556419073
sVlanguage_code
p7
Ven-US
p8
s.(dp0
S'user_type'
p1
S'admin'
p2
sVfirst_name
p3
VKirshan
p4
sVis_bot
p5
I00
sVid
p6
I556419073
sVlanguage_code
p7
Ven-US
p8
s.(dp0
S'user_type'
p1
S'admin'
p2
sVfirst_name
p3
VKirshan
p4
sVis_bot
p5
I00
sVid
p6
I556419073
sVlanguage_code
p7
Ven-US
p8
s.(dp0
S'user_type'
p1
S'admin'
p2
sVfirst_name
p3
VKirshan
p4
sVis_bot
p5
I00
sVid
p6
I556419073
sVlanguage_code
p7
Ven-US
p8
s.(dp0
S'user_type'
p1
S'admin'
p2
sVfirst_name
p3
VKirshan
p4
sVis_bot
p5
I00
sVid
p6
I556419073
sVlanguage_code
p7
Ven-US
p8
s.(dp0
S'user_type'
p1
S'admin'
p2
sVfirst_name
p3
VKirshan
p4
sVis_bot
p5
I00
sVid
p6
I556419073
sVlanguage_code
p7
Ven-US
p8
s.(dp0
S'user_type'
p1
S'admin'
p2
sVfirst_name
p3
VKirshan
p4
sVis_bot
p5
I00
sVid
p6
I556419073
sVlanguage_code
p7
Ven-US
p8
s.(dp0
S'user_type'
p1
S'admin'
p2
sVfirst_name
p3
VKirshan
p4
sVis_bot
p5
I00
sVid
p6
I556419073
sVlanguage_code
p7
Ven-US
p8
s.(dp0
S'user_type'
p1
S'admin'
p2
sVfirst_name
p3
VKirshan
p4
sVis_bot
p5
I00
sVid
p6
I556419073
sVlanguage_code
p7
Ven-US
p8
s.(dp0
S'user_type'
p1
S'admin'
p2
sVfirst_name
p3
VKirshan
p4
sVis_bot
p5
I00
sVid
p6
I556419073
sVlanguage_code
p7
Ven-US
p8
s.(dp0
S'user_type'
p1
S'admin'
p2
sVfirst_name
p3
VKirshan
p4
sVis_bot
p5
I00
sVid
p6
I556419073
sVlanguage_code
p7
Ven-US
p8
s.(dp0
S'user_type'
p1
S'admin'
p2
sVfirst_name
p3
VKirshan
p4
sVis_bot
p5
I00
sVid
p6
I556419073
sVlanguage_code
p7
Ven-US
p8
s.(dp0
S'user_type'
p1
S'admin'
p2
sVfirst_name
p3
VKirshan
p4
sVis_bot
p5
I00
sVid
p6
I556419073
sVlanguage_code
p7
Ven-US
p8
s.(dp0
S'user_type'
p1
S'admin'
p2
sVfirst_name
p3
VKirshan
p4
sVis_bot
p5
I00
sVid
p6
I556419073
sVlanguage_code
p7
Ven-US
p8
s.(dp0
S'user_type'
p1
S'admin'
p2
sVfirst_name
p3
VKirshan
p4
sVis_bot
p5
I00
sVid
p6
I556419073
sVlanguage_code
p7
Ven-US
p8
s.(dp0
S'user_type'
p1
S'admin'
p2
sVfirst_name
p3
VKirshan
p4
sVis_bot
p5
I00
sVid
p6
I556419073
sVlanguage_code
p7
Ven-US
p8
s.(dp0
S'user_type'
p1
S'admin'
p2
sVfirst_name
p3
VKirshan
p4
sVis_bot
p5
I00
sVid
p6
I556419073
sVlanguage_code
p7
Ven-US
p8
s.(dp0
S'user_type'
p1
S'admin'
p2
sVfirst_name
p3
VKirshan
p4
sVis_bot
p5
I00
sVid
p6
I556419073
sVlanguage_code
p7
Ven-US
p8
s.(dp0
S'user_type'
p1
S'admin'
p2
sVfirst_name
p3
VKirshan
p4
sVis_bot
p5
I00
sVid
p6
I556419073
sVlanguage_code
p7
Ven-US
p8
s.(dp0
S'user_type'
p1
S'admin'
p2
sVfirst_name
p3
VKirshan
p4
sVis_bot
p5
I00
sVid
p6
I556419073
sVlanguage_code
p7
Ven-US
p8
s.(dp0
S'user_type'
p1
S'admin'
p2
sVfirst_name
p3
VKirshan
p4
sVis_bot
p5
I00
sVid
p6
I556419073
sVlanguage_code
p7
Ven-US
p8
s.(dp0
S'user_type'
p1
S'admin'
p2
sVfirst_name
p3
VKirshan
p4
sVis_bot
p5
I00
sVid
p6
I556419073
sVlanguage_code
p7
Ven-US
p8
s.(dp0
S'user_type'
p1
S'admin'
p2
sVfirst_name
p3
VKirshan
p4
sVis_bot
p5
I00
sVid
p6
I556419073
sVlanguage_code
p7
Ven-US
p8
s.(dp0
S'user_type'
p1
S'admin'
p2
sVfirst_name
p3
VKirshan
p4
sVis_bot
p5
I00
sVid
p6
I556419073
sVlanguage_code
p7
Ven-US
p8
s.(dp0
S'user_type'
p1
S'admin'
p2
sVfirst_name
p3
VKirshan
p4
sVis_bot
p5
I00
sVid
p6
I556419073
sVlanguage_code
p7
Ven-US
p8
s.(dp0
S'user_type'
p1
S'admin'
p2
sVfirst_name
p3
VKirshan
p4
sVis_bot
p5
I00
sVid
p6
I556419073
sVlanguage_code
p7
Ven-US
p8
s.(dp0
S'user_type'
p1
S'admin'
p2
sVfirst_name
p3
VKirshan
p4
sVis_bot
p5
I00
sVid
p6
I556419073
sVlanguage_code
p7
Ven-US
p8
s.(dp0
S'user_type'
p1
S'admin'
p2
sVfirst_name
p3
VKirshan
p4
sVis_bot
p5
I00
sVid
p6
I556419073
sVlanguage_code
p7
Ven-US
p8
s.(dp0
S'user_type'
p1
S'admin'
p2
sVfirst_name
p3
VKirshan
p4
sVis_bot
p5
I00
sVid
p6
I556419073
sVlanguage_code
p7
Ven-US
p8
s.(dp0
S'user_type'
p1
S'admin'
p2
sVfirst_name
p3
VKirshan
p4
sVis_bot
p5
I00
sVid
p6
I556419073
sVlanguage_code
p7
Ven-US
p8
s.(dp0
S'user_type'
p1
S'admin'
p2
sVfirst_name
p3
VKirshan
p4
sVis_bot
p5
I00
sVid
p6
I556419073
sVlanguage_code
p7
Ven-US
p8
s.(dp0
S'user_type'
p1
S'admin'
p2
sVfirst_name
p3
VKirshan
p4
sVis_bot
p5
I00
sVid
p6
I556419073
sVlanguage_code
p7
Ven-US
p8
s.(dp0
S'user_type'
p1
S'admin'
p2
sVfirst_name
p3
VKirshan
p4
sVis_bot
p5
I00
sVid
p6
I556419073
sVlanguage_code
p7
Ven-US
p8
s.(dp0
S'user_type'
p1
S'admin'
p2
sVfirst_name
p3
VKirshan
p4
sVis_bot
p5
I00
sVid
p6
I556419073
sVlanguage_code
p7
Ven-US
p8
s.(dp0
S'user_type'
p1
S'admin'
p2
sVfirst_name
p3
VKirshan
p4
sVis_bot
p5
I00
sVid
p6
I556419073
sVlanguage_code
p7
Ven-US
p8
s.(dp0
S'user_type'
p1
S'admin'
p2
sVfirst_name
p3
VKirshan
p4
sVis_bot
p5
I00
sVid
p6
I556419073
sVlanguage_code
p7
Ven-US
p8
s.(dp0
S'user_type'
p1
S'admin'
p2
sVfirst_name
p3
VKirshan
p4
sVis_bot
p5
I00
sVid
p6
I556419073
sVlanguage_code
p7
Ven-US
p8
s.(dp0
S'user_type'
p1
S'admin'
p2
sVfirst_name
p3
VKirshan
p4
sVis_bot
p5
I00
sVid
p6
I556419073
sVlanguage_code
p7
Ven-US
p8
s.(dp0
S'user_type'
p1
S'admin'
p2
sVfirst_name
p3
VKirshan
p4
sVis_bot
p5
I00
sVid
p6
I556419073
sVlanguage_code
p7
Ven-US
p8
s.(dp0
S'user_type'
p1
S'admin'
p2
sVfirst_name
p3
VKirshan
p4
sVis_bot
p5
I00
sVid
p6
I556419073
sVlanguage_code
p7
Ven-US
p8
s.(dp0
S'user_type'
p1
S'admin'
p2
sVfirst_name
p3
VKirshan
p4
sVis_bot
p5
I00
sVid
p6
I556419073
sVlanguage_code
p7
Ven-US
p8
s.(dp0
S'user_type'
p1
S'admin'
p2
sVfirst_name
p3
VKirshan
p4
sVis_bot
p5
I00
sVid
p6
I556419073
sVlanguage_code
p7
Ven-US
p8
s.(dp0
S'user_type'
p1
S'admin'
p2
sVfirst_name
p3
VKirshan
p4
sVis_bot
p5
I00
sVid
p6
I556419073
sVlanguage_code
p7
Ven-US
p8
s.(dp0
S'user_type'
p1
S'admin'
p2
sVfirst_name
p3
VKirshan
p4
sVis_bot
p5
I00
sVid
p6
I556419073
sVlanguage_code
p7
Ven-US
p8
s.(dp0
S'user_type'
p1
S'admin'
p2
sVfirst_name
p3
VKirshan
p4
sVis_bot
p5
I00
sVid
p6
I556419073
sVlanguage_code
p7
Ven-US
p8
s.(dp0
S'user_type'
p1
S'admin'
p2
sVfirst_name
p3
VKirshan
p4
sVis_bot
p5
I00
sVid
p6
I556419073
sVlanguage_code
p7
Ven-US
p8
s.(dp0
S'user_type'
p1
S'admin'
p2
sVfirst_name
p3
VKirshan
p4
sVis_bot
p5
I00
sVid
p6
I556419073
sVlanguage_code
p7
Ven-US
p8
s.(dp0
S'user_type'
p1
S'admin'
p2
sVfirst_name
p3
VKirshan
p4
sVis_bot
p5
I00
sVid
p6
I556419073
sVlanguage_code
p7
Ven-US
p8
s.(dp0
S'user_type'
p1
S'admin'
p2
sVfirst_name
p3
VKirshan
p4
sVis_bot
p5
I00
sVid
p6
I556419073
sVlanguage_code
p7
Ven-US
p8
s.(dp0
S'user_type'
p1
S'admin'
p2
sVfirst_name
p3
VKirshan
p4
sVis_bot
p5
I00
sVid
p6
I556419073
sVlanguage_code
p7
Ven-US
p8
s.(dp0
S'user_type'
p1
S'admin'
p2
sVfirst_name
p3
VKirshan
p4
sVis_bot
p5
I00
sVid
p6
I556419073
sVlanguage_code
p7
Ven-US
p8
s.(dp0
S'user_type'
p1
S'admin'
p2
sVfirst_name
p3
VKirshan
p4
sVis_bot
p5
I00
sVid
p6
I556419073
sVlanguage_code
p7
Ven-US
p8
s.(dp0
S'user_type'
p1
S'admin'
p2
sVfirst_name
p3
VKirshan
p4
sVis_bot
p5
I00
sVid
p6
I556419073
sVlanguage_code
p7
Ven-US
p8
s.(dp0
S'user_type'
p1
S'admin'
p2
sVfirst_name
p3
VKirshan
p4
sVis_bot
p5
I00
sVid
p6
I556419073
sVlanguage_code
p7
Ven-US
p8
s.(dp0
S'user_type'
p1
S'admin'
p2
sVfirst_name
p3
VKirshan
p4
sVis_bot
p5
I00
sVid
p6
I556419073
sVlanguage_code
p7
Ven-US
p8
s.(dp0
S'user_type'
p1
S'admin'
p2
sVfirst_name
p3
VKirshan
p4
sVis_bot
p5
I00
sVid
p6
I556419073
sVlanguage_code
p7
Ven-US
p8
s.(dp0
S'user_type'
p1
S'admin'
p2
sVfirst_name
p3
VKirshan
p4
sVis_bot
p5
I00
sVid
p6
I556419073
sVlanguage_code
p7
Ven-US
p8
s.(dp0
S'user_type'
p1
S'admin'
p2
sVfirst_name
p3
VKirshan
p4
sVis_bot
p5
I00
sVid
p6
I556419073
sVlanguage_code
p7
Ven-US
p8
s.(dp0
S'user_type'
p1
S'admin'
p2
sVfirst_name
p3
VKirshan
p4
sVis_bot
p5
I00
sVid
p6
I556419073
sVlanguage_code
p7
Ven-US
p8
s.(dp0
S'user_type'
p1
S'admin'
p2
sVfirst_name
p3
VKirshan
p4
sVis_bot
p5
I00
sVid
p6
I556419073
sVlanguage_code
p7
Ven-US
p8
s.(dp0
S'user_type'
p1
S'admin'
p2
sVfirst_name
p3
VKirshan
p4
sVis_bot
p5
I00
sVid
p6
I556419073
sVlanguage_code
p7
Ven-US
p8
s.(dp0
S'user_type'
p1
S'admin'
p2
sVfirst_name
p3
VKirshan
p4
sVis_bot
p5
I00
sVid
p6
I556419073
sVlanguage_code
p7
Ven-US
p8
s.(dp0
S'user_type'
p1
S'admin'
p2
sVfirst_name
p3
VKirshan
p4
sVis_bot
p5
I00
sVid
p6
I556419073
sVlanguage_code
p7
Ven-US
p8
s.(dp0
S'user_type'
p1
S'admin'
p2
sVfirst_name
p3
VKirshan
p4
sVis_bot
p5
I00
sVid
p6
I556419073
sVlanguage_code
p7
Ven-US
p8
s.(dp0
S'user_type'
p1
S'admin'
p2
sVfirst_name
p3
VKirshan
p4
sVis_bot
p5
I00
sVid
p6
I556419073
sVlanguage_code
p7
Ven-US
p8
s.(dp0
S'user_type'
p1
S'admin'
p2
sVfirst_name
p3
VKirshan
p4
sVis_bot
p5
I00
sVid
p6
I556419073
sVlanguage_code
p7
Ven-US
p8
s.(dp0
S'user_type'
p1
S'admin'
p2
sVfirst_name
p3
VKirshan
p4
sVis_bot
p5
I00
sVid
p6
I556419073
sVlanguage_code
p7
Ven-US
p8
s.(dp0
S'user_type'
p1
S'admin'
p2
sVfirst_name
p3
VKirshan
p4
sVis_bot
p5
I00
sVid
p6
I556419073
sVlanguage_code
p7
Ven-US
p8
s.(dp0
S'user_type'
p1
S'admin'
p2
sVfirst_name
p3
VKirshan
p4
sVis_bot
p5
I00
sVid
p6
I556419073
sVlanguage_code
p7
Ven-US
p8
s.(dp0
S'user_type'
p1
S'admin'
p2
sVfirst_name
p3
VKirshan
p4
sVis_bot
p5
I00
sVid
p6
I556419073
sVlanguage_code
p7
Ven-US
p8
s.(dp0
S'user_type'
p1
S'admin'
p2
sVfirst_name
p3
VKirshan
p4
sVis_bot
p5
I00
sVid
p6
I556419073
sVlanguage_code
p7
Ven-US
p8
s.(dp0
S'user_type'
p1
S'admin'
p2
sVfirst_name
p3
VKirshan
p4
sVis_bot
p5
I00
sVid
p6
I556419073
sVlanguage_code
p7
Ven-US
p8
s.(dp0
S'user_type'
p1
S'admin'
p2
sVfirst_name
p3
VKirshan
p4
sVis_bot
p5
I00
sVid
p6
I556419073
sVlanguage_code
p7
Ven-US
p8
s.(dp0
S'user_type'
p1
S'admin'
p2
sVfirst_name
p3
VKirshan
p4
sVis_bot
p5
I00
sVid
p6
I556419073
sVlanguage_code
p7
Ven-US
p8
s.(dp0
S'user_type'
p1
S'admin'
p2
sVfirst_name
p3
VKirshan
p4
sVis_bot
p5
I00
sVid
p6
I556419073
sVlanguage_code
p7
Ven-US
p8
s.(dp0
S'user_type'
p1
S'admin'
p2
sVfirst_name
p3
VKirshan
p4
sVis_bot
p5
I00
sVid
p6
I556419073
sVlanguage_code
p7
Ven-US
p8
s.(dp0
S'user_type'
p1
S'admin'
p2
sVfirst_name
p3
VKirshan
p4
sVis_bot
p5
I00
sVid
p6
I556419073
sVlanguage_code
p7
Ven-US
p8
s.(dp0
S'user_type'
p1
S'admin'
p2
sVfirst_name
p3
VKirshan
p4
sVis_bot
p5
I00
sVid
p6
I556419073
sVlanguage_code
p7
Ven-US
p8
s.(dp0
S'user_type'
p1
S'admin'
p2
sVfirst_name
p3
VKirshan
p4
sVis_bot
p5
I00
sVid
p6
I556419073
sVlanguage_code
p7
Ven-US
p8
s.(dp0
S'user_type'
p1
S'admin'
p2
sVfirst_name
p3
VKirshan
p4
sVis_bot
p5
I00
sVid
p6
I556419073
sVlanguage_code
p7
Ven-US
p8
s.(dp0
S'user_type'
p1
S'admin'
p2
sVfirst_name
p3
VKirshan
p4
sVis_bot
p5
I00
sVid
p6
I556419073
sVlanguage_code
p7
Ven-US
p8
s.(dp0
S'user_type'
p1
S'admin'
p2
sVfirst_name
p3
VKirshan
p4
sVis_bot
p5
I00
sVid
p6
I556419073
sVlanguage_code
p7
Ven-US
p8
s.(dp0
S'user_type'
p1
S'admin'
p2
sVfirst_name
p3
VKirshan
p4
sVis_bot
p5
I00
sVid
p6
I556419073
sVlanguage_code
p7
Ven-US
p8
s.